ccopy_reg
_reconstructor
p1
(crdio
RdioAPI
p2
c__builtin__
object
p3
NtRp4
(dp5
S'authorization_url'
p6
S'https://www.rdio.com/oauth/authorize/?oauth_token=acq39c9guwtvjqz3qxcw8qa6'
p7
sS'parsed_content'
p8
(dp9
S'oauth_token_secret'
p10
S'jCNKTpYGZcRe'
p11
sS'login_url'
p12
S'https://www.rdio.com/oauth/authorize/'
p13
sS'oauth_token'
p14
S'acq39c9guwtvjqz3qxcw8qa6'
p15
sS'oauth_callback_confirmed'
p16
S'true'
p17
ssS'access_token'
p18
NsS'client'
p19
g1
(coauth2
Client
p20
g3
NtRp21
(dp22
S'proxy_info'
p23
NsS'follow_redirects'
p24
I01
sS'force_exception_to_status_code'
p25
I00
sS'ca_certs'
p26
NsS'credentials'
p27
g1
(chttplib2
Credentials
p28
g3
NtRp29
(dp30
g27
(lp31
sbsS'ignore_etag'
p32
I00
sS'forward_authorization_headers'
p33
I00
sS'authorizations'
p34
(lp35
sS'cache'
p36
NsS'token'
p37
NsS'disable_ssl_certificate_validation'
p38
I00
sS'optimistic_concurrency_methods'
p39
(lp40
S'PUT'
p41
aS'PATCH'
p42
asS'follow_all_redirects'
p43
I00
sS'timeout'
p44
NsS'certificates'
p45
g1
(chttplib2
KeyCerts
p46
g3
NtRp47
(dp48
g27
(lp49
sbsS'consumer'
p50
g1
(coauth2
Consumer
p51
g3
NtRp52
(dp53
S'secret'
p54
S'fNxbFy8bef'
p55
sS'key'
p56
S'4aw482p3gv62cye92fxvzhfu'
p57
sbsS'method'
p58
g1
(coauth2
SignatureMethod_HMAC_SHA1
p59
g3
NtRp60
sbsS'request_token'
p61
g1
(coauth2
Token
p62
g3
NtRp63
(dp64
g54
g11
sg56
g15
sbsg50
g52
sb.