ccopy_reg
_reconstructor
p1
(crdio
RdioAPI
p2
c__builtin__
object
p3
NtRp4
(dp5
S'authorization_url'
p6
S'https://www.rdio.com/oauth/authorize/?oauth_token=qedxzs2k92tc5rcuke5qepkk'
p7
sS'parsed_content'
p8
(dp9
S'oauth_token_secret'
p10
S'uN3hdq9AbyZC'
p11
sS'oauth_token'
p12
S'qedxzs2k92tc5rcuke5qepkk'
p13
sS'login_url'
p14
S'https://www.rdio.com/oauth/authorize/'
p15
sS'oauth_callback_confirmed'
p16
S'true'
p17
ssS'access_token'
p18
g1
(coauth2
Token
p19
g3
NtRp20
(dp21
S'secret'
p22
S'MXkf7PrKbs3w'
p23
sS'key'
p24
S'3szrsd3v5sh4cfp2v5shn8xgzd3hmsdrtyg6ez46pq63u5wakaexu565aetb6bnf'
p25
sbsS'client'
p26
g1
(coauth2
Client
p27
g3
NtRp28
(dp29
S'proxy_info'
p30
NsS'follow_redirects'
p31
I01
sS'force_exception_to_status_code'
p32
I00
sS'ca_certs'
p33
NsS'credentials'
p34
g1
(chttplib2
Credentials
p35
g3
NtRp36
(dp37
g34
(lp38
sbsS'ignore_etag'
p39
I00
sS'forward_authorization_headers'
p40
I00
sS'authorizations'
p41
(lp42
sS'cache'
p43
NsS'token'
p44
g20
sS'disable_ssl_certificate_validation'
p45
I00
sS'optimistic_concurrency_methods'
p46
(lp47
S'PUT'
p48
aS'PATCH'
p49
asS'follow_all_redirects'
p50
I00
sS'timeout'
p51
NsS'certificates'
p52
g1
(chttplib2
KeyCerts
p53
g3
NtRp54
(dp55
g34
(lp56
sbsS'consumer'
p57
g1
(coauth2
Consumer
p58
g3
NtRp59
(dp60
g22
S'fNxbFy8bef'
p61
sg24
S'4aw482p3gv62cye92fxvzhfu'
p62
sbsS'method'
p63
g1
(coauth2
SignatureMethod_HMAC_SHA1
p64
g3
NtRp65
sbsS'request_token'
p66
g1
(g19
g3
NtRp67
(dp68
g22
g11
sS'verifier'
p69
S'2871'
p70
sg24
g13
sbsg57
g59
sb.